Certificate:
    Data:
        Version: 3 (0x2)
        Serial Number: 1 (0x1)
    Signature Algorithm: sha256WithRSAEncryption
        Issuer: C=DE, ST=Hessen, L=Frankfurt am Main, O=Test Certificates, OU=Admin, CN=127.0.0.1/emailAddress=karopawil@yahoo.ca
        Validity
            Not Before: Mar 16 16:19:19 2015 GMT
            Not After : Mar 15 16:19:19 2016 GMT
        Subject: C=DE, ST=Hessen, O=Test Certificates, OU=Dev, CN=127.0.0.1/emailAddress=karopawil@yahoo.ca
        Subject Public Key Info:
            Public Key Algorithm: rsaEncryption
                Public-Key: (2048 bit)
                Modulus:
                    00:e1:9e:b3:ff:5b:9d:d0:83:0d:8e:d8:79:22:cd:
                    cd:49:c3:1d:eb:8f:90:42:cd:e9:ec:08:83:01:cc:
                    2c:f7:c9:cb:dc:2b:bd:35:3d:74:4a:09:f9:db:1f:
                    02:00:c8:bd:e3:c0:c1:e5:60:3f:86:a9:87:ff:67:
                    33:11:d5:61:e5:41:53:bd:08:37:cd:8e:8b:f5:d6:
                    6b:29:72:be:72:9b:8c:5d:70:45:1a:5c:71:d3:9b:
                    79:90:08:ae:59:4b:7d:9d:55:50:d4:c2:0b:96:63:
                    7b:ba:f4:ed:9e:1d:0c:08:97:48:fb:45:29:60:2c:
                    d6:98:dd:e8:62:63:ab:62:b9:a7:38:64:79:ab:0b:
                    57:57:d1:f1:e4:6c:1d:f1:9e:36:76:2e:34:59:43:
                    6e:b8:25:94:a8:cb:d6:35:66:9c:8d:a8:b9:65:f8:
                    a0:d8:a8:98:1d:5b:e6:b7:b7:8a:37:9b:5a:4b:5f:
                    e0:25:8a:12:fe:f5:14:c1:d3:2f:cf:d5:ad:36:52:
                    e8:22:06:a2:37:78:27:74:91:b7:40:6f:be:e9:2d:
                    c9:90:12:79:98:84:ab:d6:c9:7d:d7:72:e2:a3:30:
                    bc:4c:b8:41:0a:0f:b2:ed:70:48:d8:dd:5b:95:ad:
                    45:ca:e1:86:ac:42:7d:5b:bb:e2:53:40:9e:bd:15:
                    4c:d3
                Exponent: 65537 (0x10001)
        X509v3 extensions:
            X509v3 Basic Constraints: 
                CA:FALSE
            Netscape Comment: 
                OpenSSL Generated Certificate
            X509v3 Subject Key Identifier: 
                9A:0E:FF:61:80:3E:DC:50:80:EC:15:9B:2F:BA:FE:34:5D:F8:FD:E9
            X509v3 Authority Key Identifier: 
                keyid:93:5C:D1:DC:BC:31:F8:A9:43:EA:FE:0B:9C:27:C1:6A:34:35:30:6D

    Signature Algorithm: sha256WithRSAEncryption
         20:d6:bf:c9:d1:75:0d:fd:3a:aa:a3:4f:6a:1f:8a:bb:3d:be:
         68:1d:2e:c8:09:b7:4d:1f:c7:ee:31:59:9d:7d:05:33:68:46:
         f5:85:61:09:50:73:90:78:5f:2d:31:ed:78:d5:b6:35:58:f7:
         bb:8c:1f:b7:2b:3f:05:d2:ac:54:50:8e:31:bd:55:b0:b4:38:
         6d:a6:36:65:4e:4f:b5:4c:54:45:29:58:cb:74:03:b2:d5:d8:
         a2:ab:41:73:7d:f5:6e:60:0b:06:33:5c:a1:67:f6:6a:aa:ff:
         cf:48:1b:03:51:38:9b:f1:c1:97:ba:d8:89:d0:25:88:b9:13:
         ac:59:18:8e:97:c1:69:4e:e2:63:39:73:67:22:65:39:f3:b9:
         18:94:e9:12:50:c5:28:eb:d3:cc:59:ed:bf:9c:c2:6a:73:6e:
         69:c0:e5:62:01:1b:34:4e:63:9b:57:f3:47:8a:15:22:b2:f7:
         b1:0c:c2:b6:f8:a9:bc:bf:ba:26:66:b6:df:06:b1:3f:83:9f:
         b6:08:e6:01:09:8c:ae:7e:1a:c6:4f:45:07:aa:18:56:a7:fa:
         f6:1e:0b:cc:59:47:56:de:f2:8f:02:88:ec:b9:18:36:14:0e:
         be:fc:3c:1e:5e:4c:eb:b6:ef:e7:70:65:b7:05:42:59:30:2b:
         72:b5:05:da
-----BEGIN CERTIFICATE-----
MIIEEzCCAvugAwIBAgIBATANBgkqhkiG9w0BAQsFADCBnTELMAkGA1UEBhMCREUx
DzANBgNVBAgMBkhlc3NlbjEaMBgGA1UEBwwRRnJhbmtmdXJ0IGFtIE1haW4xGjAY
BgNVBAoMEVRlc3QgQ2VydGlmaWNhdGVzMQ4wDAYDVQQLDAVBZG1pbjESMBAGA1UE
AwwJMTI3LjAuMC4xMSEwHwYJKoZIhvcNAQkBFhJrYXJvcGF3aWxAeWFob28uY2Ew
HhcNMTUwMzE2MTYxOTE5WhcNMTYwMzE1MTYxOTE5WjB/MQswCQYDVQQGEwJERTEP
MA0GA1UECAwGSGVzc2VuMRowGAYDVQQKDBFUZXN0IENlcnRpZmljYXRlczEMMAoG
A1UECwwDRGV2MRIwEAYDVQQDDAkxMjcuMC4wLjExITAfBgkqhkiG9w0BCQEWEmth
cm9wYXdpbEB5YWhvby5jYTCCASIwDQYJKoZIhvcNAQEBBQADggEPADCCAQoCggEB
AOGes/9bndCDDY7YeSLNzUnDHeuPkELN6ewIgwHMLPfJy9wrvTU9dEoJ+dsfAgDI
vePAweVgP4aph/9nMxHVYeVBU70IN82Oi/XWaylyvnKbjF1wRRpccdObeZAIrllL
fZ1VUNTCC5Zje7r07Z4dDAiXSPtFKWAs1pjd6GJjq2K5pzhkeasLV1fR8eRsHfGe
NnYuNFlDbrgllKjL1jVmnI2ouWX4oNiomB1b5re3ijebWktf4CWKEv71FMHTL8/V
rTZS6CIGojd4J3SRt0BvvuktyZASeZiEq9bJfddy4qMwvEy4QQoPsu1wSNjdW5Wt
RcrhhqxCfVu74lNAnr0VTNMCAwEAAaN7MHkwCQYDVR0TBAIwADAsBglghkgBhvhC
AQ0EHxYdT3BlblNTTCBHZW5lcmF0ZWQgQ2VydGlmaWNhdGUwHQYDVR0OBBYEFJoO
/2GAPtxQgOwVmy+6/jRd+P3pMB8GA1UdIwQYMBaAFJNc0dy8MfipQ+r+C5wnwWo0
NTBtMA0GCSqGSIb3DQEBCwUAA4IBAQAg1r/J0XUN/Tqqo09qH4q7Pb5oHS7ICbdN
H8fuMVmdfQUzaEb1hWEJUHOQeF8tMe141bY1WPe7jB+3Kz8F0qxUUI4xvVWwtDht
pjZlTk+1TFRFKVjLdAOy1diiq0FzffVuYAsGM1yhZ/Zqqv/PSBsDUTib8cGXutiJ
0CWIuROsWRiOl8FpTuJjOXNnImU587kYlOkSUMUo69PMWe2/nMJqc25pwOViARs0
TmObV/NHihUisvexDMK2+Km8v7omZrbfBrE/g5+2COYBCYyufhrGT0UHqhhWp/r2
HgvMWUdW3vKPAojsuRg2FA6+/DweXkzrtu/ncGW3BUJZMCtytQXa
-----END CERTIFICATE-----
