Certificate:
    Data:
        Version: 3 (0x2)
        Serial Number: 2 (0x2)
    Signature Algorithm: sha256WithRSAEncryption
        Issuer: C=DE, ST=Hessen, L=Frankfurt am Main, O=Test Certificates, OU=Admin, CN=127.0.0.1/emailAddress=karopawil@yahoo.ca
        Validity
            Not Before: Mar 16 16:26:55 2015 GMT
            Not After : Mar 15 16:26:55 2016 GMT
        Subject: C=DE, ST=Hessen, O=Test Certificates, OU=Dev2, CN=127.0.0.1/emailAddress=karopawil@yahoo.ca
        Subject Public Key Info:
            Public Key Algorithm: rsaEncryption
                Public-Key: (2048 bit)
                Modulus:
                    00:e9:50:8f:12:6e:c7:fb:66:f7:7f:de:e4:45:e3:
                    75:8e:59:d9:03:06:fe:e3:83:82:e9:56:54:74:30:
                    3d:eb:04:82:31:50:a9:b4:01:90:c8:45:5e:72:d4:
                    30:08:36:b8:2b:da:99:99:e9:9b:18:2b:94:50:f6:
                    f2:72:32:66:d7:f1:8a:5b:9b:b2:64:a2:e3:44:dc:
                    fd:86:25:39:6d:f1:6f:cb:87:49:f0:0d:7f:63:21:
                    be:46:f9:51:de:f5:0f:2a:3a:3b:10:a7:48:f1:f5:
                    99:f4:9e:0b:8a:5c:9d:ff:90:db:9d:d0:1a:69:b2:
                    ff:1a:87:6e:ac:bf:ae:7f:a2:bb:70:6f:21:98:dd:
                    a9:2f:cb:9b:d2:09:a9:01:13:ff:47:6a:84:14:ca:
                    3b:b7:7c:bf:1d:7b:1f:63:da:93:76:ea:8a:e9:fb:
                    64:26:ef:56:d9:83:07:e6:e6:52:7c:b2:25:d9:c2:
                    80:a9:7c:88:f3:87:5d:6d:f2:fd:43:d6:24:5e:21:
                    d7:6e:26:06:e9:53:90:50:aa:cc:8e:24:df:22:62:
                    a5:8d:bd:a2:ea:e2:28:94:57:6a:3e:be:ad:4f:ad:
                    86:3e:6e:b6:99:ba:2e:46:4e:35:c9:25:17:1f:47:
                    1f:de:6a:05:de:5b:52:fc:f8:e5:68:d2:d0:6a:68:
                    d4:ab
                Exponent: 65537 (0x10001)
        X509v3 extensions:
            X509v3 Basic Constraints: 
                CA:FALSE
            Netscape Comment: 
                OpenSSL Generated Certificate
            X509v3 Subject Key Identifier: 
                74:EB:A1:1F:90:4C:21:13:8E:4E:94:F1:B7:E7:3B:08:4E:D0:C7:4E
            X509v3 Authority Key Identifier: 
                keyid:93:5C:D1:DC:BC:31:F8:A9:43:EA:FE:0B:9C:27:C1:6A:34:35:30:6D

    Signature Algorithm: sha256WithRSAEncryption
         6d:4e:70:42:27:8a:ee:10:03:61:d7:37:02:b4:8b:c3:5d:75:
         95:27:1c:10:c8:e2:88:5c:54:85:55:2d:2c:af:dc:52:36:21:
         e5:81:36:04:b4:2c:0d:f0:99:6b:eb:9e:25:a5:79:51:e5:c2:
         b5:2f:d9:ee:3d:b7:97:ce:2a:e1:e8:94:24:4f:d2:7d:bb:be:
         00:b1:ab:94:13:4d:ff:76:ce:92:5d:3b:c7:2c:ae:c1:63:95:
         67:d7:65:fe:05:fd:66:44:89:28:b9:90:d3:38:ea:c3:9a:7d:
         9e:34:96:e8:20:e2:06:6d:02:0a:42:73:31:cb:43:96:f2:60:
         49:dc:e5:da:f8:ab:3b:36:e7:a2:ab:37:a8:71:a0:47:a5:b1:
         f1:22:48:39:d0:44:a2:36:18:a8:c7:d5:df:a6:51:b5:a6:e5:
         f7:5b:36:9b:ad:c9:32:c5:f3:43:89:e9:42:fa:bc:ea:89:03:
         0a:1b:14:04:2c:31:72:87:57:e6:74:32:0a:64:3c:ff:87:eb:
         a2:e2:b2:60:20:98:a6:36:a1:d7:5a:c7:fc:86:65:e5:4d:55:
         93:31:2d:9b:f3:84:c5:2f:f9:f8:cb:d6:dc:90:d2:0a:3b:fc:
         cb:db:b1:ea:b9:5c:07:a4:77:6b:3b:60:31:0d:2a:ae:44:56:
         24:ac:c9:64
-----BEGIN CERTIFICATE-----
MIIEFTCCAv2gAwIBAgIBAjANBgkqhkiG9w0BAQsFADCBnTELMAkGA1UEBhMCREUx
DzANBgNVBAgMBkhlc3NlbjEaMBgGA1UEBwwRRnJhbmtmdXJ0IGFtIE1haW4xGjAY
BgNVBAoMEVRlc3QgQ2VydGlmaWNhdGVzMQ4wDAYDVQQLDAVBZG1pbjESMBAGA1UE
AwwJMTI3LjAuMC4xMSEwHwYJKoZIhvcNAQkBFhJrYXJvcGF3aWxAeWFob28uY2Ew
HhcNMTUwMzE2MTYyNjU1WhcNMTYwMzE1MTYyNjU1WjCBgDELMAkGA1UEBhMCREUx
DzANBgNVBAgMBkhlc3NlbjEaMBgGA1UECgwRVGVzdCBDZXJ0aWZpY2F0ZXMxDTAL
BgNVBAsMBERldjIxEjAQBgNVBAMMCTEyNy4wLjAuMTEhMB8GCSqGSIb3DQEJARYS
a2Fyb3Bhd2lsQHlhaG9vLmNhMIIBIjANBgkqhkiG9w0BAQEFAAOCAQ8AMIIBCgKC
AQEA6VCPEm7H+2b3f97kReN1jlnZAwb+44OC6VZUdDA96wSCMVCptAGQyEVectQw
CDa4K9qZmembGCuUUPbycjJm1/GKW5uyZKLjRNz9hiU5bfFvy4dJ8A1/YyG+RvlR
3vUPKjo7EKdI8fWZ9J4Lilyd/5DbndAaabL/GodurL+uf6K7cG8hmN2pL8ub0gmp
ARP/R2qEFMo7t3y/HXsfY9qTduqK6ftkJu9W2YMH5uZSfLIl2cKAqXyI84ddbfL9
Q9YkXiHXbiYG6VOQUKrMjiTfImKljb2i6uIolFdqPr6tT62GPm62mbouRk41ySUX
H0cf3moF3ltS/PjlaNLQamjUqwIDAQABo3sweTAJBgNVHRMEAjAAMCwGCWCGSAGG
+EIBDQQfFh1PcGVuU1NMIEdlbmVyYXRlZCBDZXJ0aWZpY2F0ZTAdBgNVHQ4EFgQU
dOuhH5BMIROOTpTxt+c7CE7Qx04wHwYDVR0jBBgwFoAUk1zR3Lwx+KlD6v4LnCfB
ajQ1MG0wDQYJKoZIhvcNAQELBQADggEBAG1OcEIniu4QA2HXNwK0i8NddZUnHBDI
4ohcVIVVLSyv3FI2IeWBNgS0LA3wmWvrniWleVHlwrUv2e49t5fOKuHolCRP0n27
vgCxq5QTTf92zpJdO8csrsFjlWfXZf4F/WZEiSi5kNM46sOafZ40lugg4gZtAgpC
czHLQ5byYEnc5dr4qzs256KrN6hxoEelsfEiSDnQRKI2GKjH1d+mUbWm5fdbNput
yTLF80OJ6UL6vOqJAwobFAQsMXKHV+Z0MgpkPP+H66LismAgmKY2oddax/yGZeVN
VZMxLZvzhMUv+fjL1tyQ0go7/Mvbseq5XAekd2s7YDENKq5EViSsyWQ=
-----END CERTIFICATE-----
